; Function Attrs: mustprogress nofree norecurse nosync nounwind willreturn memory(read, inaccessiblemem: none) uwtable
define noundef i32 @_ZNK6icu_7725CollationFastLatinBuilder12encodeTwoCEsEll(ptr noundef nonnull readonly align 8 captures(none) dereferenceable(7372) %0, i64 noundef %1, i64 noundef %2) local_unnamed_addr #9 align 2 {
  switch i64 %1, label %5 [
    i64 0, label %99
    i64 4311744768, label %4
  ]

4:                                                ; preds = %3
  br label %99

5:                                                ; preds = %3
  %6 = and i64 %1, -49153
  %7 = getelementptr inbounds nuw i8, ptr %0, i64 7248
  %8 = load ptr, ptr %7, align 8, !tbaa !46
  %9 = getelementptr inbounds nuw i8, ptr %0, i64 7232
  %10 = load i32, ptr %9, align 8, !tbaa !45
  %11 = icmp eq i32 %10, 0
  br i1 %11, label %_ZNK6icu_7725CollationFastLatinBuilder9getMiniCEEl.exit, label %.preheader.i.i

.preheader.i.i:                                   ; preds = %5
  %12 = sdiv i32 %10, 2
  %13 = sext i32 %12 to i64
  %14 = getelementptr inbounds i64, ptr %8, i64 %13
  %15 = load i64, ptr %14, align 8, !tbaa !47
  %16 = icmp eq i64 %6, %15
  br i1 %16, label %_ZNK6icu_7725CollationFastLatinBuilder9getMiniCEEl.exit, label %.lr.ph.i.i

.lr.ph.i.i:                                       ; preds = %.preheader.i.i, %27
  %17 = phi i64 [ %32, %27 ], [ %15, %.preheader.i.i ]
  %18 = phi i32 [ %29, %27 ], [ %12, %.preheader.i.i ]
  %.01938.i.i = phi i32 [ %.120.i.i, %27 ], [ %10, %.preheader.i.i ]
  %.02237.i.i = phi i32 [ %.123.i.i, %27 ], [ 0, %.preheader.i.i ]
  %19 = icmp ult i64 %6, %17
  %20 = icmp eq i32 %18, %.02237.i.i
  br i1 %19, label %21, label %24

21:                                               ; preds = %.lr.ph.i.i
  br i1 %20, label %22, label %27

22:                                               ; preds = %21
  %23 = xor i32 %18, -1
  br label %_ZNK6icu_7725CollationFastLatinBuilder9getMiniCEEl.exit

24:                                               ; preds = %.lr.ph.i.i
  br i1 %20, label %25, label %27

25:                                               ; preds = %24
  %26 = sub nsw i32 -2, %18
  br label %_ZNK6icu_7725CollationFastLatinBuilder9getMiniCEEl.exit

27:                                               ; preds = %24, %21
  %.123.i.i = phi i32 [ %.02237.i.i, %21 ], [ %18, %24 ]
  %.120.i.i = phi i32 [ %18, %21 ], [ %.01938.i.i, %24 ]
  %28 = add nsw i32 %.120.i.i, %.123.i.i
  %29 = sdiv i32 %28, 2
  %30 = sext i32 %29 to i64
  %31 = getelementptr inbounds i64, ptr %8, i64 %30
  %32 = load i64, ptr %31, align 8, !tbaa !47
  %33 = icmp eq i64 %6, %32
  br i1 %33, label %_ZNK6icu_7725CollationFastLatinBuilder9getMiniCEEl.exit, label %.lr.ph.i.i, !llvm.loop !53

_ZNK6icu_7725CollationFastLatinBuilder9getMiniCEEl.exit: ; preds = %27, %5, %.preheader.i.i, %22, %25
  %.018.i.i = phi i32 [ -1, %5 ], [ %26, %25 ], [ %23, %22 ], [ %12, %.preheader.i.i ], [ %29, %27 ]
  %34 = getelementptr inbounds nuw i8, ptr %0, i64 7256
  %35 = load ptr, ptr %34, align 8, !tbaa !6
  %36 = sext i32 %.018.i.i to i64
  %37 = getelementptr inbounds i16, ptr %35, i64 %36
  %38 = load i16, ptr %37, align 2, !tbaa !49
  %39 = icmp eq i16 %38, 1
  br i1 %39, label %99, label %40

40:                                               ; preds = %_ZNK6icu_7725CollationFastLatinBuilder9getMiniCEEl.exit
  %41 = zext i16 %38 to i32
  %42 = icmp ugt i16 %38, 4095
  %43 = trunc i64 %1 to i32
  %44 = lshr i32 %43, 11
  %45 = and i32 %44, 24
  %46 = add nuw nsw i32 %45, 8
  %47 = select i1 %42, i32 %46, i32 0
  %.039 = or i32 %47, %41
  %48 = icmp eq i64 %2, 0
  br i1 %48, label %99, label %49

49:                                               ; preds = %40
  %50 = and i64 %2, -49153
  br i1 %11, label %_ZNK6icu_7725CollationFastLatinBuilder9getMiniCEEl.exit58, label %.preheader.i.i51

.preheader.i.i51:                                 ; preds = %49
  %51 = sdiv i32 %10, 2
  %52 = sext i32 %51 to i64
  %53 = getelementptr inbounds i64, ptr %8, i64 %52
  %54 = load i64, ptr %53, align 8, !tbaa !47
  %55 = icmp eq i64 %50, %54
  br i1 %55, label %_ZNK6icu_7725CollationFastLatinBuilder9getMiniCEEl.exit58, label %.lr.ph.i.i52

.lr.ph.i.i52:                                     ; preds = %.preheader.i.i51, %66
  %56 = phi i64 [ %71, %66 ], [ %54, %.preheader.i.i51 ]
  %57 = phi i32 [ %68, %66 ], [ %51, %.preheader.i.i51 ]
  %.01938.i.i53 = phi i32 [ %.120.i.i56, %66 ], [ %10, %.preheader.i.i51 ]
  %.02237.i.i54 = phi i32 [ %.123.i.i55, %66 ], [ 0, %.preheader.i.i51 ]
  %58 = icmp ult i64 %50, %56
  %59 = icmp eq i32 %57, %.02237.i.i54
  br i1 %58, label %60, label %63

60:                                               ; preds = %.lr.ph.i.i52
  br i1 %59, label %61, label %66

61:                                               ; preds = %60
  %62 = xor i32 %57, -1
  br label %_ZNK6icu_7725CollationFastLatinBuilder9getMiniCEEl.exit58

63:                                               ; preds = %.lr.ph.i.i52
  br i1 %59, label %64, label %66

64:                                               ; preds = %63
  %65 = sub nsw i32 -2, %57
  br label %_ZNK6icu_7725CollationFastLatinBuilder9getMiniCEEl.exit58

66:                                               ; preds = %63, %60
  %.123.i.i55 = phi i32 [ %.02237.i.i54, %60 ], [ %57, %63 ]
  %.120.i.i56 = phi i32 [ %57, %60 ], [ %.01938.i.i53, %63 ]
  %67 = add nsw i32 %.120.i.i56, %.123.i.i55
  %68 = sdiv i32 %67, 2
  %69 = sext i32 %68 to i64
  %70 = getelementptr inbounds i64, ptr %8, i64 %69
  %71 = load i64, ptr %70, align 8, !tbaa !47
  %72 = icmp eq i64 %50, %71
  br i1 %72, label %_ZNK6icu_7725CollationFastLatinBuilder9getMiniCEEl.exit58, label %.lr.ph.i.i52, !llvm.loop !53

_ZNK6icu_7725CollationFastLatinBuilder9getMiniCEEl.exit58: ; preds = %66, %49, %.preheader.i.i51, %61, %64
  %.018.i.i57 = phi i32 [ -1, %49 ], [ %65, %64 ], [ %62, %61 ], [ %51, %.preheader.i.i51 ], [ %68, %66 ]
  %73 = sext i32 %.018.i.i57 to i64
  %74 = getelementptr inbounds i16, ptr %35, i64 %73
  %75 = load i16, ptr %74, align 2, !tbaa !49
  %76 = zext i16 %75 to i32
  %77 = icmp eq i16 %75, 1
  br i1 %77, label %99, label %78

78:                                               ; preds = %_ZNK6icu_7725CollationFastLatinBuilder9getMiniCEEl.exit58
  %79 = trunc i64 %2 to i32
  %80 = and i32 %79, 49152
  %81 = and i32 %.039, 992
  %82 = icmp eq i32 %81, 160
  %or.cond = and i1 %42, %82
  br i1 %or.cond, label %83, label %91

83:                                               ; preds = %78
  %84 = and i32 %76, 992
  %85 = and i32 %76, 7
  %86 = icmp samesign ult i32 %84, 384
  %87 = or disjoint i32 %85, %80
  %88 = icmp ne i32 %87, 0
  %or.cond3.not = or i1 %86, %88
  %89 = and i32 %.039, 64543
  %90 = or disjoint i32 %84, %89
  br i1 %or.cond3.not, label %91, label %99

91:                                               ; preds = %83, %78
  %92 = add nsw i32 %76, -4096
  %or.cond5 = icmp ult i32 %92, -3103
  %93 = lshr exact i32 %80, 11
  %94 = add nuw nsw i32 %93, 8
  %95 = select i1 %or.cond5, i32 %94, i32 0
  %96 = shl nuw i32 %.039, 16
  %97 = or disjoint i32 %95, %96
  %98 = or i32 %97, %76
  br label %99

99:                                               ; preds = %_ZNK6icu_7725CollationFastLatinBuilder9getMiniCEEl.exit, %40, %91, %83, %_ZNK6icu_7725CollationFastLatinBuilder9getMiniCEEl.exit58, %3, %4
  %.0 = phi i32 [ 1, %4 ], [ 0, %3 ], [ 1, %_ZNK6icu_7725CollationFastLatinBuilder9getMiniCEEl.exit ], [ %.039, %40 ], [ 1, %_ZNK6icu_7725CollationFastLatinBuilder9getMiniCEEl.exit58 ], [ %98, %91 ], [ %90, %83 ]
  ret i32 %.0
}